target datalayout = "e-m:e-p270:32:32-p271:32:32-p272:64:64-i64:64-i128:128-f80:128-n8:16:32:64-S128"
target triple = "x86_64-pc-linux-gnu"

%struct.Qureg = type { i32, i32, i32, i64, i64, i32, i32, %struct.ComplexArray, %struct.ComplexArray, %struct.ComplexArray, ptr, ptr, ptr, ptr, ptr, ptr }
%struct.ComplexArray = type { ptr, ptr }
%struct.ComplexMatrix4 = type { [4 x [4 x double]], [4 x [4 x double]] }

@__func__.applyMatrix4 = private unnamed_addr constant [13 x i8] c"applyMatrix4\00", align 1
@.str.24 = private unnamed_addr constant [95 x i8] c"Here, an undisclosed 4-by-4 matrix (possibly non-unitary) was multiplied onto qubits %d and %d\00", align 1

; Function Attrs: nounwind uwtable
define void @applyMatrix4(ptr noundef byval(%struct.Qureg) align 8 %0, i32 noundef %1, i32 noundef %2, ptr noundef byval(%struct.ComplexMatrix4) align 8 %3) #0 {
  %5 = alloca i32, align 4
  %6 = alloca i32, align 4
  %7 = alloca [2 x i32], align 4
  store i32 %1, ptr %5, align 4, !tbaa !4
  store i32 %2, ptr %6, align 4, !tbaa !4
  %8 = load i32, ptr %5, align 4, !tbaa !4
  store i32 %8, ptr %7, align 4, !tbaa !4
  %9 = getelementptr inbounds i32, ptr %7, i64 1
  %10 = load i32, ptr %6, align 4, !tbaa !4
  store i32 %10, ptr %9, align 4, !tbaa !4
  %11 = getelementptr inbounds [2 x i32], ptr %7, i64 0, i64 0
  call void @validateMultiTargets(ptr noundef byval(%struct.Qureg) align 8 %0, ptr noundef %11, i32 noundef 2, ptr noundef @__func__.applyMatrix4)
  call void @validateMultiQubitMatrixFitsInNode(ptr noundef byval(%struct.Qureg) align 8 %0, i32 noundef 2, ptr noundef @__func__.applyMatrix4)
  %12 = load i32, ptr %5, align 4, !tbaa !4
  %13 = load i32, ptr %6, align 4, !tbaa !4
  call void @statevec_twoQubitUnitary(ptr noundef byval(%struct.Qureg) align 8 %0, i32 noundef %12, i32 noundef %13, ptr noundef byval(%struct.ComplexMatrix4) align 8 %3)
  %14 = load i32, ptr %5, align 4, !tbaa !4
  %15 = load i32, ptr %6, align 4, !tbaa !4
  call void (ptr, ptr, ...) @qasm_recordComment(ptr noundef byval(%struct.Qureg) align 8 %0, ptr noundef @.str.24, i32 noundef %14, i32 noundef %15)
  ret void
}