; Function Attrs: nounwind uwtable
define void @applyMatrix4(ptr noundef readonly byval(%struct.Qureg) align 8 captures(none) %0, i32 noundef %1, i32 noundef %2, ptr noundef readonly byval(%struct.ComplexMatrix4) align 8 captures(none) %3) local_unnamed_addr #0 {
  %5 = alloca [2 x i32], align 4
  store i32 %1, ptr %5, align 4, !tbaa !20
  %6 = getelementptr inbounds nuw i8, ptr %5, i64 4
  store i32 %2, ptr %6, align 4, !tbaa !20
  call void @validateMultiTargets(ptr noundef nonnull byval(%struct.Qureg) align 8 %0, ptr noundef nonnull %5, i32 noundef 2, ptr noundef nonnull @__func__.applyMatrix4) #17
  call void @validateMultiQubitMatrixFitsInNode(ptr noundef nonnull byval(%struct.Qureg) align 8 %0, i32 noundef 2, ptr noundef nonnull @__func__.applyMatrix4) #17
  call void @statevec_twoQubitUnitary(ptr noundef nonnull byval(%struct.Qureg) align 8 %0, i32 noundef %1, i32 noundef %2, ptr noundef nonnull byval(%struct.ComplexMatrix4) align 8 %3) #17
  call void (ptr, ptr, ...) @qasm_recordComment(ptr noundef nonnull byval(%struct.Qureg) align 8 %0, ptr noundef nonnull @.str.24, i32 noundef %1, i32 noundef %2) #17
  ret void
}